; Function Attrs: nounwind uwtable
define ptr @l_Lake_Package_leanExes(ptr noundef %0) local_unnamed_addr #0 {
  %2 = getelementptr inbounds nuw i8, ptr %0, i64 88
  %3 = load ptr, ptr %2, align 8, !tbaa !4
  %4 = ptrtoint ptr %3 to i64
  %5 = and i64 %4, 1
  %.not = icmp eq i64 %5, 0
  br i1 %.not, label %6, label %lean_nat_lt.exit.thread

6:                                                ; preds = %1
  %.val.i = load i32, ptr %3, align 4, !tbaa !8
  %7 = icmp sgt i32 %.val.i, 0
  br i1 %7, label %8, label %10, !prof !11

8:                                                ; preds = %6
  %9 = add nuw i32 %.val.i, 1
  store i32 %9, ptr %3, align 4, !tbaa !8
  br label %lean_nat_lt.exit

10:                                               ; preds = %6
  %.not.i49 = icmp eq i32 %.val.i, 0
  br i1 %.not.i49, label %lean_nat_lt.exit, label %11

11:                                               ; preds = %10
  tail call void @lean_inc_ref_cold(ptr noundef nonnull %3) #4
  br label %lean_nat_lt.exit

lean_nat_lt.exit:                                 ; preds = %8, %10, %11
  %12 = getelementptr i8, ptr %3, i64 8
  %.val = load i64, ptr %12, align 8, !tbaa !12
  %.mask56 = and i64 %.val, 9223372036854775807
  %.not52 = icmp eq i64 %.mask56, 0
  br i1 %.not52, label %lean_dec.exit32, label %33

lean_nat_lt.exit.thread:                          ; preds = %1
  %13 = getelementptr i8, ptr %3, i64 8
  %.val51 = load i64, ptr %13, align 8, !tbaa !12
  %.mask = and i64 %.val51, 9223372036854775807
  %.not53 = icmp eq i64 %.mask, 0
  br i1 %.not53, label %lean_dec.exit31, label %lean_dec.exit26

lean_dec.exit32:                                  ; preds = %lean_nat_lt.exit
  %14 = load i32, ptr %3, align 4, !tbaa !8
  %15 = icmp sgt i32 %14, 1
  br i1 %15, label %16, label %18, !prof !11

16:                                               ; preds = %lean_dec.exit32
  %17 = add nsw i32 %14, -1
  store i32 %17, ptr %3, align 4, !tbaa !8
  br label %lean_dec.exit31

18:                                               ; preds = %lean_dec.exit32
  %.not.i33 = icmp eq i32 %14, 0
  br i1 %.not.i33, label %lean_dec.exit31, label %19

19:                                               ; preds = %18
  tail call void @lean_dec_ref_cold(ptr noundef nonnull %3) #4
  br label %lean_dec.exit31

lean_dec.exit31:                                  ; preds = %lean_nat_lt.exit.thread, %19, %18, %16
  %20 = ptrtoint ptr %0 to i64
  %21 = and i64 %20, 1
  %.not54 = icmp eq i64 %21, 0
  br i1 %.not54, label %22, label %lean_dec.exit30

22:                                               ; preds = %lean_dec.exit31
  %23 = load i32, ptr %0, align 4, !tbaa !8
  %24 = icmp sgt i32 %23, 1
  br i1 %24, label %25, label %27, !prof !11

25:                                               ; preds = %22
  %26 = add nsw i32 %23, -1
  store i32 %26, ptr %0, align 4, !tbaa !8
  br label %lean_dec.exit30

27:                                               ; preds = %22
  %.not.i35 = icmp eq i32 %23, 0
  br i1 %.not.i35, label %lean_dec.exit30, label %28

28:                                               ; preds = %27
  tail call void @lean_dec_ref_cold(ptr noundef nonnull %0) #4
  br label %lean_dec.exit30

lean_dec.exit30:                                  ; preds = %28, %27, %25, %lean_dec.exit31
  %29 = load ptr, ptr @l_Lake_Package_leanExes___closed__1, align 8, !tbaa !4
  br label %lean_dec.exit

lean_dec.exit26:                                  ; preds = %lean_nat_lt.exit.thread
  %30 = and i64 %.val51, 9223372036854775807
  %31 = load ptr, ptr @l_Lake_Package_leanExes___closed__1, align 8, !tbaa !4
  %32 = tail call ptr @l_Array_foldlMUnsafe_fold___at_Lake_Package_leanExes___spec__1(ptr noundef nonnull %0, ptr noundef nonnull %3, i64 noundef 0, i64 noundef %30, ptr noundef %31)
  br label %lean_dec.exit

33:                                               ; preds = %lean_nat_lt.exit
  %34 = and i64 %.val, 9223372036854775807
  %35 = load ptr, ptr @l_Lake_Package_leanExes___closed__1, align 8, !tbaa !4
  %36 = tail call ptr @l_Array_foldlMUnsafe_fold___at_Lake_Package_leanExes___spec__1(ptr noundef nonnull %0, ptr noundef nonnull %3, i64 noundef 0, i64 noundef %34, ptr noundef %35)
  %37 = load i32, ptr %3, align 4, !tbaa !8
  %38 = icmp sgt i32 %37, 1
  br i1 %38, label %39, label %41, !prof !11

39:                                               ; preds = %33
  %40 = add nsw i32 %37, -1
  store i32 %40, ptr %3, align 4, !tbaa !8
  br label %lean_dec.exit

41:                                               ; preds = %33
  %.not.i45 = icmp eq i32 %37, 0
  br i1 %.not.i45, label %lean_dec.exit, label %42

42:                                               ; preds = %41
  tail call void @lean_dec_ref_cold(ptr noundef nonnull %3) #4
  br label %lean_dec.exit

lean_dec.exit:                                    ; preds = %lean_dec.exit26, %39, %41, %42, %lean_dec.exit30
  %.0 = phi ptr [ %29, %lean_dec.exit30 ], [ %36, %42 ], [ %36, %41 ], [ %36, %39 ], [ %32, %lean_dec.exit26 ]
  ret ptr %.0
}